(dp0
S'_StoreService:History'
p1
(lp2
(dp3
S'InstallIdentifier'
p4
S'com.plexapp.system.services'
p5
sS'InstallAction'
p6
S'Plug in installed (revision 62fcf1f)'
p7
sS'InstallDate'
p8
cdatetime
datetime
p9
(S'\x07\xe4\x06\x16\x0c*\x08\r{\xda'
p10
tp11
Rp12
sasS'_AgentService:AgentInfo'
p13
(dp14
S'com.plexapp.agents.fanarttv'
p15
(lp16
(dp17
S'media_types'
p18
(lp19
S'Movie'
p20
asS'primary_provider'
p21
I00
sS'fallback_agent'
p22
NsS'contributes_to'
p23
(lp24
S'com.plexapp.agents.imdb'
p25
aS'com.plexapp.agents.themoviedb'
p26
asS'has_attribution'
p27
I01
sS'languages'
p28
(lp29
S'xn'
p30
asS'persist_stored_files'
p31
I01
sS'version'
p32
I0
sS'accepts_from'
p33
NsS'prefs'
p34
I01
sS'name'
p35
S'Fanart.tv'
p36
sa(dp37
S'media_types'
p38
(lp39
S'TV_Show'
p40
asS'primary_provider'
p41
I00
sS'fallback_agent'
p42
NsS'contributes_to'
p43
(lp44
S'com.plexapp.agents.thetvdb'
p45
aS'com.plexapp.agents.themoviedb'
p46
asg27
I01
sS'languages'
p47
(lp48
S'xn'
p49
asS'persist_stored_files'
p50
I01
sS'version'
p51
I0
sS'accepts_from'
p52
NsS'prefs'
p53
I01
sS'name'
p54
S'Fanart.tv'
p55
sa(dp56
S'media_types'
p57
(lp58
S'Artist'
p59
asS'primary_provider'
p60
I00
sS'fallback_agent'
p61
NsS'contributes_to'
p62
(lp63
S'com.plexapp.agents.lastfm'
p64
asg27
I01
sS'languages'
p65
(lp66
S'xn'
p67
asS'persist_stored_files'
p68
I01
sS'version'
p69
I0
sS'accepts_from'
p70
NsS'prefs'
p71
I01
sS'name'
p72
S'Fanart.tv'
p73
sa(dp74
S'media_types'
p75
(lp76
S'Album'
p77
asS'primary_provider'
p78
I00
sS'fallback_agent'
p79
NsS'contributes_to'
p80
(lp81
S'com.plexapp.agents.lastfm'
p82
asg27
I01
sS'languages'
p83
(lp84
S'xn'
p85
asS'persist_stored_files'
p86
I01
sS'version'
p87
I0
sS'accepts_from'
p88
NsS'prefs'
p89
I01
sS'name'
p90
S'Fanart.tv'
p91
sasS'com.plexapp.agents.none'
p92
(lp93
(dp94
S'media_types'
p95
(lp96
S'Movie'
p97
asS'primary_provider'
p98
I01
sS'fallback_agent'
p99
NsS'contributes_to'
p100
Nsg27
I00
sS'languages'
p101
(lp102
S'xn'
p103
asS'persist_stored_files'
p104
I01
sS'version'
p105
I0
sS'accepts_from'
p106
NsS'prefs'
p107
I00
sS'name'
p108
S'Personal Media'
p109
sa(dp110
S'media_types'
p111
(lp112
S'TV_Show'
p113
asS'primary_provider'
p114
I01
sS'fallback_agent'
p115
NsS'contributes_to'
p116
Nsg27
I00
sS'languages'
p117
(lp118
S'xn'
p119
asS'persist_stored_files'
p120
I01
sS'version'
p121
I0
sS'accepts_from'
p122
NsS'prefs'
p123
I00
sS'name'
p124
S'Personal Media Shows'
p125
sa(dp126
S'media_types'
p127
(lp128
S'Artist'
p129
asS'primary_provider'
p130
I01
sS'fallback_agent'
p131
NsS'contributes_to'
p132
Nsg27
I00
sS'languages'
p133
(lp134
S'xn'
p135
asS'persist_stored_files'
p136
I01
sS'version'
p137
I0
sS'accepts_from'
p138
NsS'prefs'
p139
I00
sS'name'
p140
S'Personal Media Artists'
p141
sa(dp142
S'media_types'
p143
(lp144
S'Album'
p145
asS'primary_provider'
p146
I01
sS'fallback_agent'
p147
NsS'contributes_to'
p148
Nsg27
I00
sS'languages'
p149
(lp150
S'xn'
p151
asS'persist_stored_files'
p152
I01
sS'version'
p153
I0
sS'accepts_from'
p154
NsS'prefs'
p155
I00
sS'name'
p156
S'Personal Media Albums'
p157
sa(dp158
S'media_types'
p159
(lp160
S'Photo'
p161
asS'primary_provider'
p162
I01
sS'fallback_agent'
p163
NsS'contributes_to'
p164
Nsg27
I00
sS'languages'
p165
(lp166
S'en'
p167
aS'ar'
p168
aS'bg'
p169
aS'ca'
p170
aS'cs'
p171
aS'cy'
p172
aS'da'
p173
aS'de'
p174
aS'el'
p175
aS'es'
p176
aS'et'
p177
aS'fa'
p178
aS'fi'
p179
aS'fr'
p180
aS'he'
p181
aS'hi'
p182
aS'hr'
p183
aS'ht'
p184
aS'hu'
p185
aS'id'
p186
aS'it'
p187
aS'ja'
p188
aS'ko'
p189
aS'lt'
p190
aS'lv'
p191
aS'ms'
p192
aS'mt'
p193
aS'nl'
p194
aS'no'
p195
aS'pl'
p196
aS'pt'
p197
aS'ro'
p198
aS'ru'
p199
aS'sk'
p200
aS'sv'
p201
aS'sl'
p202
aS'sr'
p203
aS'th'
p204
aS'tr'
p205
aS'uk'
p206
aS'ur'
p207
aS'vi'
p208
aS'zh'
p209
aS'xn'
p210
asS'persist_stored_files'
p211
I01
sS'version'
p212
I0
sS'accepts_from'
p213
NsS'prefs'
p214
I00
sS'name'
p215
S'Photos'
p216
sasS'tv.plex.agents.music'
p217
(lp218
(dp219
S'media_types'
p220
(lp221
S'Artist'
p222
asS'primary_provider'
p223
I01
sS'fallback_agent'
p224
NsS'contributes_to'
p225
(lp226
S'com.plexapp.agents.localmedia'
p227
asg27
I01
sS'languages'
p228
(lp229
S'en'
p230
aS'ar'
p231
aS'bg'
p232
aS'zh'
p233
aS'hr'
p234
aS'cs'
p235
aS'da'
p236
aS'nl'
p237
aS'fi'
p238
aS'fr'
p239
aS'de'
p240
aS'el'
p241
aS'hu'
p242
aS'id'
p243
aS'it'
p244
aS'ja'
p245
aS'ko'
p246
aS'nn'
p247
aS'pl'
p248
aS'pt'
p249
aS'ro'
p250
aS'ru'
p251
aS'sr'
p252
aS'sk'
p253
aS'es'
p254
aS'sv'
p255
aS'th'
p256
aS'tr'
p257
aS'vi'
p258
aS'xx'
p259
asS'persist_stored_files'
p260
I01
sS'version'
p261
I0
sS'accepts_from'
p262
NsS'prefs'
p263
I01
sS'name'
p264
S'Plex Music'
p265
sa(dp266
S'media_types'
p267
(lp268
S'Album'
p269
asS'primary_provider'
p270
I01
sS'fallback_agent'
p271
NsS'contributes_to'
p272
(lp273
S'com.plexapp.agents.localmedia'
p274
asg27
I01
sS'languages'
p275
g229
sS'persist_stored_files'
p276
I01
sS'version'
p277
I0
sS'accepts_from'
p278
NsS'prefs'
p279
I01
sS'name'
p280
S'Plex Music'
p281
sasS'com.plexapp.agents.opensubtitles'
p282
(lp283
(dp284
S'media_types'
p285
(lp286
S'Movie'
p287
asS'primary_provider'
p288
I00
sS'fallback_agent'
p289
NsS'contributes_to'
p290
(lp291
S'com.plexapp.agents.imdb'
p292
asg27
I00
sS'languages'
p293
(lp294
S'xn'
p295
asS'persist_stored_files'
p296
I01
sS'version'
p297
I0
sS'accepts_from'
p298
NsS'prefs'
p299
I01
sS'name'
p300
S'OpenSubtitles.org'
p301
sa(dp302
S'media_types'
p303
(lp304
S'TV_Show'
p305
asS'primary_provider'
p306
I00
sS'fallback_agent'
p307
NsS'contributes_to'
p308
(lp309
S'com.plexapp.agents.thetvdb'
p310
asg27
I00
sS'languages'
p311
(lp312
S'xn'
p313
asS'persist_stored_files'
p314
I01
sS'version'
p315
I0
sS'accepts_from'
p316
NsS'prefs'
p317
I01
sS'name'
p318
S'OpenSubtitles.org'
p319
sasS'com.plexapp.agents.themoviedb'
p320
(lp321
(dp322
S'media_types'
p323
(lp324
S'Movie'
p325
asS'primary_provider'
p326
I01
sS'fallback_agent'
p327
NsS'contributes_to'
p328
Nsg27
I01
sS'languages'
p329
(lp330
S'en'
p331
aS'cs'
p332
aS'da'
p333
aS'de'
p334
aS'el'
p335
aS'es'
p336
aS'fi'
p337
aS'fr'
p338
aS'he'
p339
aS'hr'
p340
aS'hu'
p341
aS'it'
p342
aS'lv'
p343
aS'lt'
p344
aS'nl'
p345
aS'no'
p346
aS'pl'
p347
aS'pt'
p348
aS'ru'
p349
aS'sk'
p350
aS'sv'
p351
aS'th'
p352
aS'tr'
p353
aS'vi'
p354
aS'zh'
p355
aS'ko'
p356
asS'persist_stored_files'
p357
I01
sS'version'
p358
I0
sS'accepts_from'
p359
(lp360
S'com.plexapp.agents.localmedia'
p361
asS'prefs'
p362
I01
sS'name'
p363
S'The Movie Database'
p364
sa(dp365
S'media_types'
p366
(lp367
S'TV_Show'
p368
asS'primary_provider'
p369
I01
sS'fallback_agent'
p370
NsS'contributes_to'
p371
(lp372
S'com.plexapp.agents.thetvdb'
p373
asg27
I01
sS'languages'
p374
g330
sS'persist_stored_files'
p375
I01
sS'version'
p376
I0
sS'accepts_from'
p377
(lp378
S'com.plexapp.agents.localmedia'
p379
aS'com.plexapp.agents.thetvdb'
p380
asS'prefs'
p381
I01
sS'name'
p382
S'The Movie Database'
p383
sasS'com.plexapp.agents.imdb'
p384
(lp385
(dp386
S'media_types'
p387
(lp388
S'Movie'
p389
asS'primary_provider'
p390
I01
sS'fallback_agent'
p391
NsS'contributes_to'
p392
(lp393
S'com.plexapp.agents.themoviedb'
p394
asg27
I01
sS'languages'
p395
(lp396
S'en'
p397
aS'sv'
p398
aS'fr'
p399
aS'es'
p400
aS'nl'
p401
aS'de'
p402
aS'it'
p403
aS'da'
p404
aS'ar'
p405
aS'ca'
p406
aS'zh'
p407
aS'cs'
p408
aS'et'
p409
aS'fi'
p410
aS'el'
p411
aS'he'
p412
aS'hi'
p413
aS'hu'
p414
aS'id'
p415
aS'ja'
p416
aS'ko'
p417
aS'lv'
p418
aS'no'
p419
aS'fa'
p420
aS'pl'
p421
aS'pt'
p422
aS'ro'
p423
aS'ru'
p424
aS'sk'
p425
aS'th'
p426
aS'tr'
p427
aS'uk'
p428
aS'vi'
p429
asS'persist_stored_files'
p430
I01
sS'version'
p431
I0
sS'accepts_from'
p432
(lp433
S'com.plexapp.agents.localmedia'
p434
asS'prefs'
p435
I01
sS'name'
p436
S'Plex Movie'
p437
sasS'com.plexapp.agents.lyricfind'
p438
(lp439
(dp440
S'media_types'
p441
(lp442
S'Album'
p443
asS'primary_provider'
p444
I00
sS'fallback_agent'
p445
NsS'contributes_to'
p446
(lp447
S'com.plexapp.agents.lastfm'
p448
aS'tv.plex.agents.music'
p449
aS'org.musicbrainz.agents.music'
p450
asg27
I01
sS'languages'
p451
(lp452
S'xn'
p453
asS'persist_stored_files'
p454
I01
sS'version'
p455
I0
sS'accepts_from'
p456
NsS'prefs'
p457
I00
sS'name'
p458
S'LyricFind'
p459
sasS'com.plexapp.agents.thetvdb'
p460
(lp461
(dp462
S'media_types'
p463
(lp464
S'TV_Show'
p465
asS'primary_provider'
p466
I01
sS'fallback_agent'
p467
NsS'contributes_to'
p468
Nsg27
I01
sS'languages'
p469
(lp470
S'en'
p471
aS'fr'
p472
aS'zh'
p473
aS'sv'
p474
aS'no'
p475
aS'da'
p476
aS'fi'
p477
aS'nl'
p478
aS'de'
p479
aS'it'
p480
aS'es'
p481
aS'pl'
p482
aS'hu'
p483
aS'el'
p484
aS'tr'
p485
aS'ru'
p486
aS'he'
p487
aS'ja'
p488
aS'pt'
p489
aS'cs'
p490
aS'ko'
p491
aS'sl'
p492
aS'hr'
p493
asS'persist_stored_files'
p494
I01
sS'version'
p495
I0
sS'accepts_from'
p496
NsS'prefs'
p497
I01
sS'name'
p498
S'TheTVDB'
p499
sasS'tv.plex.agents.movie'
p500
(lp501
(dp502
S'media_types'
p503
(lp504
S'Movie'
p505
asS'primary_provider'
p506
I01
sS'fallback_agent'
p507
NsS'contributes_to'
p508
Nsg27
I01
sS'languages'
p509
(lp510
S'en'
p511
aS'sv'
p512
aS'fr'
p513
aS'es'
p514
aS'nl'
p515
aS'de'
p516
aS'it'
p517
aS'da'
p518
aS'ar'
p519
aS'ca'
p520
aS'zh'
p521
aS'cs'
p522
aS'et'
p523
aS'fi'
p524
aS'el'
p525
aS'he'
p526
aS'hi'
p527
aS'hu'
p528
aS'id'
p529
aS'ja'
p530
aS'ko'
p531
aS'lv'
p532
aS'no'
p533
aS'fa'
p534
aS'pl'
p535
aS'pt'
p536
aS'ro'
p537
aS'ru'
p538
aS'sk'
p539
aS'th'
p540
aS'tr'
p541
aS'uk'
p542
aS'vi'
p543
asS'persist_stored_files'
p544
I01
sS'version'
p545
I0
sS'accepts_from'
p546
NsS'prefs'
p547
I01
sS'name'
p548
S'Plex Movie New'
p549
sasS'com.plexapp.agents.plexthememusic'
p550
(lp551
(dp552
S'media_types'
p553
(lp554
S'TV_Show'
p555
asS'primary_provider'
p556
I00
sS'fallback_agent'
p557
NsS'contributes_to'
p558
(lp559
S'com.plexapp.agents.thetvdb'
p560
aS'com.plexapp.agents.thetvdbdvdorder'
p561
aS'com.plexapp.agents.themoviedb'
p562
asg27
I00
sS'languages'
p563
(lp564
S'xn'
p565
asS'persist_stored_files'
p566
I01
sS'version'
p567
I0
sS'accepts_from'
p568
NsS'prefs'
p569
I00
sS'name'
p570
S'Plex Theme Music'
p571
sasS'org.musicbrainz.agents.music'
p572
(lp573
(dp574
S'media_types'
p575
(lp576
S'Artist'
p577
asS'primary_provider'
p578
I01
sS'fallback_agent'
p579
NsS'contributes_to'
p580
Nsg27
I01
sS'languages'
p581
(lp582
S'en'
p583
aS'ar'
p584
aS'bg'
p585
aS'zh'
p586
aS'hr'
p587
aS'cs'
p588
aS'da'
p589
aS'nl'
p590
aS'fi'
p591
aS'fr'
p592
aS'de'
p593
aS'el'
p594
aS'hu'
p595
aS'id'
p596
aS'it'
p597
aS'ja'
p598
aS'ko'
p599
aS'nn'
p600
aS'pl'
p601
aS'pt'
p602
aS'ro'
p603
aS'ru'
p604
aS'sr'
p605
aS'sk'
p606
aS'es'
p607
aS'sv'
p608
aS'th'
p609
aS'tr'
p610
aS'vi'
p611
aS'xx'
p612
asS'persist_stored_files'
p613
I01
sS'version'
p614
I0
sS'accepts_from'
p615
NsS'prefs'
p616
I01
sS'name'
p617
S'Musicbrainz'
p618
sa(dp619
S'media_types'
p620
(lp621
S'Album'
p622
asS'primary_provider'
p623
I01
sS'fallback_agent'
p624
NsS'contributes_to'
p625
Nsg27
I01
sS'languages'
p626
g582
sS'persist_stored_files'
p627
I01
sS'version'
p628
I0
sS'accepts_from'
p629
NsS'prefs'
p630
I01
sS'name'
p631
S'Musicbrainz'
p632
sasS'com.plexapp.agents.htbackdrops'
p633
(lp634
(dp635
S'media_types'
p636
(lp637
S'Artist'
p638
asS'primary_provider'
p639
I00
sS'fallback_agent'
p640
NsS'contributes_to'
p641
(lp642
S'com.plexapp.agents.lastfm'
p643
asg27
I01
sS'languages'
p644
(lp645
S'ab'
p646
aS'aa'
p647
aS'af'
p648
aS'ak'
p649
aS'sq'
p650
aS'am'
p651
aS'ar'
p652
aS'an'
p653
aS'hy'
p654
aS'as'
p655
aS'av'
p656
aS'ae'
p657
aS'ay'
p658
aS'az'
p659
aS'bm'
p660
aS'ba'
p661
aS'eu'
p662
aS'be'
p663
aS'bn'
p664
aS'bh'
p665
aS'bi'
p666
aS'bs'
p667
aS'pb'
p668
aS'br'
p669
aS'bg'
p670
aS'my'
p671
aS'ca'
p672
aS'ch'
p673
aS'ce'
p674
aS'ny'
p675
aS'zh'
p676
aS'cu'
p677
aS'cv'
p678
aS'kw'
p679
aS'co'
p680
aS'cr'
p681
aS'hr'
p682
aS'cs'
p683
aS'da'
p684
aS'dv'
p685
aS'nl'
p686
aS'dz'
p687
aS'en'
p688
aS'eo'
p689
aS'et'
p690
aS'ee'
p691
aS'fo'
p692
aS'fj'
p693
aS'fi'
p694
aS'fr'
p695
aS'fy'
p696
aS'ff'
p697
aS'gd'
p698
aS'gl'
p699
aS'lg'
p700
aS'ka'
p701
aS'de'
p702
aS'el'
p703
aS'gn'
p704
aS'gu'
p705
aS'ht'
p706
aS'ha'
p707
aS'he'
p708
aS'hz'
p709
aS'hi'
p710
aS'ho'
p711
aS'hu'
p712
aS'is'
p713
aS'io'
p714
aS'ig'
p715
aS'id'
p716
aS'ia'
p717
aS'ie'
p718
aS'iu'
p719
aS'ik'
p720
aS'ga'
p721
aS'it'
p722
aS'ja'
p723
aS'jv'
p724
aS'kl'
p725
aS'kn'
p726
aS'kr'
p727
aS'ks'
p728
aS'kk'
p729
aS'km'
p730
aS'ki'
p731
aS'rw'
p732
aS'ky'
p733
aS'kv'
p734
aS'kg'
p735
aS'ko'
p736
aS'kj'
p737
aS'ku'
p738
aS'lo'
p739
aS'la'
p740
aS'lv'
p741
aS'li'
p742
aS'ln'
p743
aS'lt'
p744
aS'lu'
p745
aS'lb'
p746
aS'mk'
p747
aS'mg'
p748
aS'ms'
p749
aS'ml'
p750
aS'mt'
p751
aS'gv'
p752
aS'mi'
p753
aS'mr'
p754
aS'mh'
p755
aS'mo'
p756
aS'mn'
p757
aS'na'
p758
aS'nv'
p759
aS'ng'
p760
aS'ne'
p761
aS'xn'
p762
aS'nd'
p763
aS'no'
p764
aS'nb'
p765
aS'nn'
p766
aS'oc'
p767
aS'oj'
p768
aS'or'
p769
aS'om'
p770
aS'os'
p771
aS'pi'
p772
aS'pa'
p773
aS'fa'
p774
aS'pl'
p775
aS'pt'
p776
aS'ps'
p777
aS'qu'
p778
aS'rm'
p779
aS'ro'
p780
aS'rn'
p781
aS'ru'
p782
aS'se'
p783
aS'sm'
p784
aS'sg'
p785
aS'sa'
p786
aS'sc'
p787
aS'sr'
p788
aS'sn'
p789
aS'ii'
p790
aS'sd'
p791
aS'si'
p792
aS'sk'
p793
aS'sl'
p794
aS'so'
p795
aS'st'
p796
aS'nr'
p797
aS'es'
p798
aS'su'
p799
aS'sw'
p800
aS'ss'
p801
aS'sv'
p802
aS'tl'
p803
aS'ty'
p804
aS'tg'
p805
aS'ta'
p806
aS'tt'
p807
aS'te'
p808
aS'th'
p809
aS'bo'
p810
aS'ti'
p811
aS'to'
p812
aS'ts'
p813
aS'tn'
p814
aS'tr'
p815
aS'tk'
p816
aS'tw'
p817
aS'ug'
p818
aS'uk'
p819
aS'ur'
p820
aS'uz'
p821
aS've'
p822
aS'vi'
p823
aS'vo'
p824
aS'wa'
p825
aS'cy'
p826
aS'wo'
p827
aS'xh'
p828
aS'yi'
p829
aS'yo'
p830
aS'za'
p831
aS'zu'
p832
asS'persist_stored_files'
p833
I01
sS'version'
p834
I0
sS'accepts_from'
p835
NsS'prefs'
p836
I00
sS'name'
p837
S'Home Theater Backdrops'
p838
sasS'com.plexapp.agents.movieposterdb'
p839
(lp840
(dp841
S'media_types'
p842
(lp843
S'Movie'
p844
asS'primary_provider'
p845
I00
sS'fallback_agent'
p846
NsS'contributes_to'
p847
(lp848
S'com.plexapp.agents.imdb'
p849
asg27
I01
sS'languages'
p850
(lp851
S'xn'
p852
asS'persist_stored_files'
p853
I01
sS'version'
p854
I0
sS'accepts_from'
p855
NsS'prefs'
p856
I00
sS'name'
p857
S'CineMaterial'
p858
sasS'com.plexapp.agents.localmedia'
p859
(lp860
(dp861
S'media_types'
p862
(lp863
S'Movie'
p864
asS'primary_provider'
p865
I00
sS'fallback_agent'
p866
NsS'contributes_to'
p867
(lp868
S'com.plexapp.agents.imdb'
p869
aS'com.plexapp.agents.none'
p870
asg27
I00
sS'languages'
p871
(lp872
S'xn'
p873
asS'persist_stored_files'
p874
I00
sS'version'
p875
I0
sS'accepts_from'
p876
NsS'prefs'
p877
I01
sS'name'
p878
S'Local Media Assets (Movies)'
p879
sa(dp880
S'media_types'
p881
(lp882
S'TV_Show'
p883
asS'primary_provider'
p884
I00
sS'fallback_agent'
p885
NsS'contributes_to'
p886
(lp887
S'com.plexapp.agents.thetvdb'
p888
aS'com.plexapp.agents.none'
p889
asg27
I00
sS'languages'
p890
(lp891
S'xn'
p892
asS'persist_stored_files'
p893
I00
sS'version'
p894
I0
sS'accepts_from'
p895
NsS'prefs'
p896
I01
sS'name'
p897
S'Local Media Assets (TV)'
p898
sa(dp899
S'media_types'
p900
(lp901
S'Artist'
p902
asS'primary_provider'
p903
I00
sS'fallback_agent'
p904
NsS'contributes_to'
p905
(lp906
S'com.plexapp.agents.discogs'
p907
aS'com.plexapp.agents.lastfm'
p908
aS'com.plexapp.agents.plexmusic'
p909
aS'com.plexapp.agents.none'
p910
aS'tv.plex.agents.music'
p911
aS'org.musicbrainz.agents.music'
p912
asg27
I00
sS'languages'
p913
(lp914
S'xn'
p915
asS'persist_stored_files'
p916
I00
sS'version'
p917
I0
sS'accepts_from'
p918
NsS'prefs'
p919
I01
sS'name'
p920
S'Local Media Assets (Artists)'
p921
sa(dp922
S'media_types'
p923
(lp924
S'Artist'
p925
asS'primary_provider'
p926
I00
sS'fallback_agent'
p927
NsS'contributes_to'
p928
(lp929
S'com.plexapp.agents.plexmusic'
p930
asg27
I00
sS'languages'
p931
g914
sS'persist_stored_files'
p932
I00
sS'version'
p933
I2
sS'accepts_from'
p934
NsS'prefs'
p935
I01
sS'name'
p936
S'Local Media Assets (Artists)'
p937
sa(dp938
S'media_types'
p939
(lp940
S'Album'
p941
asS'primary_provider'
p942
I00
sS'fallback_agent'
p943
NsS'contributes_to'
p944
(lp945
S'com.plexapp.agents.discogs'
p946
aS'com.plexapp.agents.lastfm'
p947
aS'com.plexapp.agents.plexmusic'
p948
aS'com.plexapp.agents.none'
p949
aS'tv.plex.agents.music'
p950
aS'org.musicbrainz.agents.music'
p951
asg27
I00
sS'languages'
p952
(lp953
S'xn'
p954
asS'persist_stored_files'
p955
I00
sS'version'
p956
I0
sS'accepts_from'
p957
NsS'prefs'
p958
I01
sS'name'
p959
S'Local Media Assets (Albums)'
p960
sasS'com.plexapp.agents.lastfm'
p961
(lp962
(dp963
S'media_types'
p964
(lp965
S'Artist'
p966
asS'primary_provider'
p967
I01
sS'fallback_agent'
p968
NsS'contributes_to'
p969
Nsg27
I01
sS'languages'
p970
(lp971
S'en'
p972
aS'sv'
p973
aS'fr'
p974
aS'es'
p975
aS'de'
p976
aS'pl'
p977
aS'it'
p978
aS'pt'
p979
aS'ja'
p980
aS'tr'
p981
aS'ru'
p982
aS'zh'
p983
asS'persist_stored_files'
p984
I01
sS'version'
p985
I0
sS'accepts_from'
p986
NsS'prefs'
p987
I01
sS'name'
p988
S'Last.fm'
p989
sa(dp990
S'media_types'
p991
(lp992
S'Album'
p993
asS'primary_provider'
p994
I01
sS'fallback_agent'
p995
NsS'contributes_to'
p996
Nsg27
I01
sS'languages'
p997
(lp998
S'en'
p999
aS'sv'
p1000
aS'fr'
p1001
aS'es'
p1002
aS'de'
p1003
aS'pl'
p1004
aS'it'
p1005
aS'pt'
p1006
aS'ja'
p1007
aS'tr'
p1008
aS'ru'
p1009
aS'zh'
p1010
asS'persist_stored_files'
p1011
I01
sS'version'
p1012
I0
sS'accepts_from'
p1013
NsS'prefs'
p1014
I01
sS'name'
p1015
S'Last.fm'
p1016
sass.